target datalayout = "e-m:e-p270:32:32-p271:32:32-p272:64:64-i64:64-i128:128-f80:128-n8:16:32:64-S128"
target triple = "x86_64-pc-linux-gnu"

%"class.LightGBM::Bin" = type { ptr }
%"class.std::vector" = type { %"struct.std::_Vector_base" }
%"struct.std::_Vector_base" = type { %"struct.std::_Vector_base<unsigned char, LightGBM::Common::AlignmentAllocator<unsigned char>>::_Vector_impl" }
%"struct.std::_Vector_base<unsigned char, LightGBM::Common::AlignmentAllocator<unsigned char>>::_Vector_impl" = type { %"struct.std::_Vector_base<unsigned char, LightGBM::Common::AlignmentAllocator<unsigned char>>::_Vector_impl_data" }
%"struct.std::_Vector_base<unsigned char, LightGBM::Common::AlignmentAllocator<unsigned char>>::_Vector_impl_data" = type { ptr, ptr, ptr }
%"class.std::vector.0" = type { %"struct.std::_Vector_base.1" }
%"struct.std::_Vector_base.1" = type { %"struct.std::_Vector_base<unsigned char, std::allocator<unsigned char>>::_Vector_impl" }
%"struct.std::_Vector_base<unsigned char, std::allocator<unsigned char>>::_Vector_impl" = type { %"struct.std::_Vector_base<unsigned char, std::allocator<unsigned char>>::_Vector_impl_data" }
%"struct.std::_Vector_base<unsigned char, std::allocator<unsigned char>>::_Vector_impl_data" = type { ptr, ptr, ptr }
%"class.LightGBM::DenseBin.16" = type { %"class.LightGBM::Bin", i32, %"class.std::vector", %"class.std::vector.0" }
%"struct.std::_Vector_base.229" = type { %"struct.std::_Vector_base<LightGBM::BinIterator *, std::allocator<LightGBM::BinIterator *>>::_Vector_impl" }
%"struct.std::_Vector_base<LightGBM::BinIterator *, std::allocator<LightGBM::BinIterator *>>::_Vector_impl" = type { %"struct.std::_Vector_base<LightGBM::BinIterator *, std::allocator<LightGBM::BinIterator *>>::_Vector_impl_data" }
%"struct.std::_Vector_base<LightGBM::BinIterator *, std::allocator<LightGBM::BinIterator *>>::_Vector_impl_data" = type { ptr, ptr, ptr }

; Function Attrs: mustprogress nounwind uwtable
define linkonce_odr void @_ZNSt12_Destroy_auxILb1EE9__destroyIPPN8LightGBM11BinIteratorEEEvT_S6_(ptr noundef %0, ptr noundef %1) #0 comdat align 2 {
  %3 = alloca ptr, align 8
  %4 = alloca ptr, align 8
  store ptr %0, ptr %3, align 8, !tbaa !55
  store ptr %1, ptr %4, align 8, !tbaa !55
  ret void
}

; Function Attrs: inlinehint mustprogress uwtable
define linkonce_odr void @_ZSt8_DestroyIPPN8LightGBM11BinIteratorEEvT_S4_(ptr noundef %0, ptr noundef %1) #9 comdat {
  %3 = alloca ptr, align 8
  %4 = alloca ptr, align 8
  store ptr %0, ptr %3, align 8, !tbaa !55
  store ptr %1, ptr %4, align 8, !tbaa !55
  %5 = load ptr, ptr %3, align 8, !tbaa !55
  %6 = load ptr, ptr %4, align 8, !tbaa !55
  call void @_ZNSt12_Destroy_auxILb1EE9__destroyIPPN8LightGBM11BinIteratorEEEvT_S6_(ptr noundef %5, ptr noundef %6)
  ret void
}

; Function Attrs: noinline noreturn nounwind uwtable
define linkonce_odr hidden void @__clang_call_terminate(ptr noundef %0) #10 comdat {
  %2 = call ptr @__cxa_begin_catch(ptr %0) #5
  call void @_ZSt9terminatev() #30
  unreachable
}

; Function Attrs: inlinehint mustprogress uwtable
define linkonce_odr void @_ZSt8_DestroyIPPN8LightGBM11BinIteratorES2_EvT_S4_RSaIT0_E(ptr noundef %0, ptr noundef %1, ptr noundef nonnull align 1 dereferenceable(1) %2) #9 comdat {
  %4 = alloca ptr, align 8
  %5 = alloca ptr, align 8
  %6 = alloca ptr, align 8
  store ptr %0, ptr %4, align 8, !tbaa !55
  store ptr %1, ptr %5, align 8, !tbaa !55
  store ptr %2, ptr %6, align 8, !tbaa !2415
  %7 = load ptr, ptr %4, align 8, !tbaa !55
  %8 = load ptr, ptr %5, align 8, !tbaa !55
  call void @_ZSt8_DestroyIPPN8LightGBM11BinIteratorEEvT_S4_(ptr noundef %7, ptr noundef %8)
  ret void
}

; Function Attrs: mustprogress nounwind uwtable
define linkonce_odr noundef nonnull align 1 dereferenceable(1) ptr @_ZNSt12_Vector_baseIPN8LightGBM11BinIteratorESaIS2_EE19_M_get_Tp_allocatorEv(ptr noundef nonnull align 8 dereferenceable(24) %0) #0 comdat align 2 {
  %2 = alloca ptr, align 8
  store ptr %0, ptr %2, align 8, !tbaa !2417
  %3 = load ptr, ptr %2, align 8
  %4 = getelementptr inbounds nuw %"struct.std::_Vector_base.229", ptr %3, i32 0, i32 0
  ret ptr %4
}

; Function Attrs: mustprogress nounwind uwtable
define linkonce_odr noundef ptr @_ZNKSt6vectorIhN8LightGBM6Common18AlignmentAllocatorIhLm32EEEE11_M_data_ptrIhEEPT_S7_(ptr noundef nonnull align 8 dereferenceable(24) %0, ptr noundef %1) #0 comdat align 2 {
  %3 = alloca ptr, align 8
  %4 = alloca ptr, align 8
  store ptr %0, ptr %3, align 8, !tbaa !217
  store ptr %1, ptr %4, align 8, !tbaa !23
  %5 = load ptr, ptr %4, align 8, !tbaa !23
  ret ptr %5
}

; Function Attrs: mustprogress nounwind uwtable
define linkonce_odr void @_ZNSt6vectorIPN8LightGBM11BinIteratorESaIS2_EE15_M_erase_at_endEPS2_(ptr noundef nonnull align 8 dereferenceable(24) %0, ptr noundef %1) #0 comdat align 2 personality ptr @__gxx_personality_v0 {
  %3 = alloca ptr, align 8
  %4 = alloca ptr, align 8
  %5 = alloca i64, align 8
  store ptr %0, ptr %3, align 8, !tbaa !53
  store ptr %1, ptr %4, align 8, !tbaa !55
  %6 = load ptr, ptr %3, align 8
  call void @llvm.lifetime.start.p0(i64 8, ptr %5) #5
  %7 = getelementptr inbounds nuw %"struct.std::_Vector_base.229", ptr %6, i32 0, i32 0
  %8 = getelementptr inbounds nuw %"struct.std::_Vector_base<LightGBM::BinIterator *, std::allocator<LightGBM::BinIterator *>>::_Vector_impl_data", ptr %7, i32 0, i32 1
  %9 = load ptr, ptr %8, align 8, !tbaa !2414
  %10 = load ptr, ptr %4, align 8, !tbaa !55
  %11 = ptrtoint ptr %9 to i64
  %12 = ptrtoint ptr %10 to i64
  %13 = sub i64 %11, %12
  %14 = sdiv exact i64 %13, 8
  store i64 %14, ptr %5, align 8, !tbaa !37
  %15 = load i64, ptr %5, align 8, !tbaa !37
  %16 = icmp ne i64 %15, 0
  br i1 %16, label %17, label %27

17:                                               ; preds = %2
  %18 = load ptr, ptr %4, align 8, !tbaa !55
  %19 = getelementptr inbounds nuw %"struct.std::_Vector_base.229", ptr %6, i32 0, i32 0
  %20 = getelementptr inbounds nuw %"struct.std::_Vector_base<LightGBM::BinIterator *, std::allocator<LightGBM::BinIterator *>>::_Vector_impl_data", ptr %19, i32 0, i32 1
  %21 = load ptr, ptr %20, align 8, !tbaa !2414
  %22 = call noundef nonnull align 1 dereferenceable(1) ptr @_ZNSt12_Vector_baseIPN8LightGBM11BinIteratorESaIS2_EE19_M_get_Tp_allocatorEv(ptr noundef nonnull align 8 dereferenceable(24) %6) #5
  invoke void @_ZSt8_DestroyIPPN8LightGBM11BinIteratorES2_EvT_S4_RSaIT0_E(ptr noundef %18, ptr noundef %21, ptr noundef nonnull align 1 dereferenceable(1) %22)
          to label %23 unwind label %28

23:                                               ; preds = %17
  %24 = load ptr, ptr %4, align 8, !tbaa !55
  %25 = getelementptr inbounds nuw %"struct.std::_Vector_base.229", ptr %6, i32 0, i32 0
  %26 = getelementptr inbounds nuw %"struct.std::_Vector_base<LightGBM::BinIterator *, std::allocator<LightGBM::BinIterator *>>::_Vector_impl_data", ptr %25, i32 0, i32 1
  store ptr %24, ptr %26, align 8, !tbaa !2414
  br label %27

27:                                               ; preds = %23, %2
  call void @llvm.lifetime.end.p0(i64 8, ptr %5) #5
  ret void

28:                                               ; preds = %17
  %29 = landingpad { ptr, i32 }
          catch ptr null
  %30 = extractvalue { ptr, i32 } %29, 0
  call void @__clang_call_terminate(ptr %30) #30
  unreachable
}

; Function Attrs: mustprogress nounwind uwtable
define linkonce_odr noundef ptr @_ZNKSt6vectorIhN8LightGBM6Common18AlignmentAllocatorIhLm32EEEE4dataEv(ptr noundef nonnull align 8 dereferenceable(24) %0) #0 comdat align 2 {
  %2 = alloca ptr, align 8
  store ptr %0, ptr %2, align 8, !tbaa !217
  %3 = load ptr, ptr %2, align 8
  %4 = getelementptr inbounds nuw %"struct.std::_Vector_base", ptr %3, i32 0, i32 0
  %5 = getelementptr inbounds nuw %"struct.std::_Vector_base<unsigned char, LightGBM::Common::AlignmentAllocator<unsigned char>>::_Vector_impl_data", ptr %4, i32 0, i32 0
  %6 = load ptr, ptr %5, align 8, !tbaa !221
  %7 = call noundef ptr @_ZNKSt6vectorIhN8LightGBM6Common18AlignmentAllocatorIhLm32EEEE11_M_data_ptrIhEEPT_S7_(ptr noundef nonnull align 8 dereferenceable(24) %3, ptr noundef %6) #5
  ret ptr %7
}

; Function Attrs: mustprogress nounwind uwtable
define linkonce_odr void @_ZNSt6vectorIPN8LightGBM11BinIteratorESaIS2_EE5clearEv(ptr noundef nonnull align 8 dereferenceable(24) %0) #0 comdat align 2 {
  %2 = alloca ptr, align 8
  store ptr %0, ptr %2, align 8, !tbaa !53
  %3 = load ptr, ptr %2, align 8
  %4 = getelementptr inbounds nuw %"struct.std::_Vector_base.229", ptr %3, i32 0, i32 0
  %5 = getelementptr inbounds nuw %"struct.std::_Vector_base<LightGBM::BinIterator *, std::allocator<LightGBM::BinIterator *>>::_Vector_impl_data", ptr %4, i32 0, i32 0
  %6 = load ptr, ptr %5, align 8, !tbaa !2412
  call void @_ZNSt6vectorIPN8LightGBM11BinIteratorESaIS2_EE15_M_erase_at_endEPS2_(ptr noundef nonnull align 8 dereferenceable(24) %3, ptr noundef %6) #5
  ret void
}

; Function Attrs: mustprogress nounwind uwtable
define noundef ptr @_ZNK8LightGBM8DenseBinIhLb0EE14GetColWiseDataEPhPbPSt6vectorIPNS_11BinIteratorESaIS6_EEi(ptr noundef nonnull align 8 dereferenceable(64) %0, ptr noundef %1, ptr noundef %2, ptr noundef %3, i32 noundef %4) unnamed_addr #0 align 2 {
  %6 = alloca ptr, align 8
  %7 = alloca ptr, align 8
  %8 = alloca ptr, align 8
  %9 = alloca ptr, align 8
  %10 = alloca i32, align 4
  store ptr %0, ptr %6, align 8, !tbaa !60
  store ptr %1, ptr %7, align 8, !tbaa !23
  store ptr %2, ptr %8, align 8, !tbaa !51
  store ptr %3, ptr %9, align 8, !tbaa !53
  store i32 %4, ptr %10, align 4, !tbaa !11
  %11 = load ptr, ptr %6, align 8
  %12 = load ptr, ptr %8, align 8, !tbaa !51
  store i8 0, ptr %12, align 1, !tbaa !46
  %13 = load ptr, ptr %7, align 8, !tbaa !23
  store i8 8, ptr %13, align 1, !tbaa !13
  %14 = load ptr, ptr %9, align 8, !tbaa !53
  call void @_ZNSt6vectorIPN8LightGBM11BinIteratorESaIS2_EE5clearEv(ptr noundef nonnull align 8 dereferenceable(24) %14) #5
  %15 = getelementptr inbounds nuw %"class.LightGBM::DenseBin.16", ptr %11, i32 0, i32 2
  %16 = call noundef ptr @_ZNKSt6vectorIhN8LightGBM6Common18AlignmentAllocatorIhLm32EEEE4dataEv(ptr noundef nonnull align 8 dereferenceable(24) %15) #5
  ret ptr %16
}